target datalayout = "e-m:e-p270:32:32-p271:32:32-p272:64:64-i64:64-i128:128-f80:128-n8:16:32:64-S128"
target triple = "x86_64-pc-linux-gnu"

%struct._value_string_ext = type { ptr, i32, i32, ptr, ptr }
%struct.expert_field = type { i32, i32 }

@.str.52 = private unnamed_addr constant [6 x i8] c"Error\00", align 1
@hf_r3_checksumresults = internal global i32 0, align 4
@hf_r3_checksumresults_field = internal global i32 0, align 4
@r3_checksumresultnames_ext = internal global %struct._value_string_ext { ptr @_try_val_to_str_ext_init, i32 0, i32 7, ptr @r3_checksumresultnames, ptr @.str.1727 }, align 8
@hf_r3_checksumresults_length = internal global i32 0, align 4
@hf_r3_checksumresults_state = internal global i32 0, align 4
@ett_r3checksumresults = internal global i32 0, align 4
@ett_r3checksumresultsfield = internal global i32 0, align 4
@ei_r3_malformed_length = internal global %struct.expert_field zeroinitializer, align 4
@.str.1736 = private unnamed_addr constant [9 x i8] c"No Error\00", align 1
@.str.1860 = private unnamed_addr constant [29 x i8] c"%s:%u: failed assertion \22%s\22\00", align 1
@.str.1861 = private unnamed_addr constant [33 x i8] c"epan/dissectors/packet-assa_r3.c\00", align 1
@.str.1862 = private unnamed_addr constant [18 x i8] c"start_offset == 0\00", align 1
@.str.2117 = private unnamed_addr constant [21 x i8] c"[Unknown Field Name]\00", align 1
@.str.2121 = private unnamed_addr constant [47 x i8] c"Checksum results data length not modulo 3 == 0\00", align 1
@.str.2122 = private unnamed_addr constant [22 x i8] c"Checksum Results (%s)\00", align 1
@.str.2123 = private unnamed_addr constant [10 x i8] c"No Errors\00", align 1
@.str.2124 = private unnamed_addr constant [9 x i8] c" %s (%s)\00", align 1

; Function Attrs: null_pointer_is_valid sspstrong uwtable
define internal void @dissect_r3_upstreammfgfield_checksumresults(ptr noundef %0, i32 noundef %1, i32 noundef %2, ptr noundef %3, ptr noundef %4) #0 {
  %6 = alloca ptr, align 8
  %7 = alloca i32, align 4
  %8 = alloca i32, align 4
  %9 = alloca ptr, align 8
  %10 = alloca ptr, align 8
  %11 = alloca i32, align 4
  %12 = alloca ptr, align 8
  %13 = alloca i32, align 4
  %14 = alloca i32, align 4
  %15 = alloca i8, align 1
  %16 = alloca i32, align 4
  %17 = alloca ptr, align 8
  %18 = alloca ptr, align 8
  %19 = alloca ptr, align 8
  store ptr %0, ptr %6, align 8
  store i32 %1, ptr %7, align 4
  store i32 %2, ptr %8, align 4
  store ptr %3, ptr %9, align 8
  store ptr %4, ptr %10, align 8
  call void @llvm.lifetime.start.p0(i64 4, ptr %11) #5
  %20 = load i32, ptr %7, align 4
  %21 = icmp eq i32 %20, 0
  br i1 %21, label %22, label %23

22:                                               ; preds = %5
  br label %25

23:                                               ; preds = %5
  call void (ptr, ...) @proto_report_dissector_bug(ptr noundef @.str.1860, ptr noundef @.str.1861, i32 noundef 4879, ptr noundef @.str.1862) #6
  unreachable

24:                                               ; No predecessors!
  br label %25

25:                                               ; preds = %24, %22
  %26 = load ptr, ptr %6, align 8
  %27 = call i32 @tvb_reported_length_remaining(ptr noundef %26, i32 noundef 0)
  %28 = icmp sgt i32 0, %27
  br i1 %28, label %29, label %30

29:                                               ; preds = %25
  br label %33

30:                                               ; preds = %25
  %31 = load ptr, ptr %6, align 8
  %32 = call i32 @tvb_reported_length_remaining(ptr noundef %31, i32 noundef 0)
  br label %33

33:                                               ; preds = %30, %29
  %34 = phi i32 [ 0, %29 ], [ %32, %30 ]
  store i32 %34, ptr %11, align 4
  %35 = load i32, ptr %11, align 4
  %36 = srem i32 %35, 3
  %37 = icmp ne i32 %36, 0
  br i1 %37, label %38, label %43

38:                                               ; preds = %33
  %39 = load ptr, ptr %9, align 8
  %40 = load ptr, ptr %10, align 8
  %41 = call ptr @proto_tree_get_parent(ptr noundef %40)
  %42 = call ptr (ptr, ptr, ptr, ptr, ...) @expert_add_info_format(ptr noundef %39, ptr noundef %41, ptr noundef @ei_r3_malformed_length, ptr noundef @.str.2121)
  br label %147

43:                                               ; preds = %33
  call void @llvm.lifetime.start.p0(i64 8, ptr %12) #5
  call void @llvm.lifetime.start.p0(i64 4, ptr %13) #5
  store i32 0, ptr %13, align 4
  call void @llvm.lifetime.start.p0(i64 4, ptr %14) #5
  call void @llvm.lifetime.start.p0(i64 1, ptr %15) #5
  %44 = load ptr, ptr %10, align 8
  %45 = icmp ne ptr %44, null
  br i1 %45, label %47, label %46

46:                                               ; preds = %43
  store i32 1, ptr %16, align 4
  br label %144

47:                                               ; preds = %43
  store i32 0, ptr %14, align 4
  br label %48

48:                                               ; preds = %60, %47
  %49 = load i32, ptr %14, align 4
  %50 = load i32, ptr %11, align 4
  %51 = icmp slt i32 %49, %50
  br i1 %51, label %52, label %58

52:                                               ; preds = %48
  %53 = load ptr, ptr %6, align 8
  %54 = load i32, ptr %14, align 4
  %55 = call zeroext i8 @tvb_get_uint8(ptr noundef %53, i32 noundef %54)
  store i8 %55, ptr %15, align 1
  %56 = zext i8 %55 to i32
  %57 = icmp sgt i32 %56, 0
  br label %58

58:                                               ; preds = %52, %48
  %59 = phi i1 [ false, %48 ], [ %57, %52 ]
  br i1 %59, label %60, label %72

60:                                               ; preds = %58
  %61 = load ptr, ptr %6, align 8
  %62 = load i32, ptr %14, align 4
  %63 = add i32 %62, 2
  %64 = call zeroext i8 @tvb_get_uint8(ptr noundef %61, i32 noundef %63)
  %65 = zext i8 %64 to i32
  %66 = load i32, ptr %13, align 4
  %67 = or i32 %66, %65
  store i32 %67, ptr %13, align 4
  %68 = load i8, ptr %15, align 1
  %69 = zext i8 %68 to i32
  %70 = load i32, ptr %14, align 4
  %71 = add i32 %70, %69
  store i32 %71, ptr %14, align 4
  br label %48, !llvm.loop !27

72:                                               ; preds = %58
  %73 = load ptr, ptr %10, align 8
  %74 = load ptr, ptr %6, align 8
  %75 = load i32, ptr %11, align 4
  %76 = load i32, ptr @ett_r3checksumresults, align 4
  %77 = load i32, ptr %13, align 4
  %78 = icmp ne i32 %77, 0
  %79 = select i1 %78, ptr @.str.52, ptr @.str.2123
  %80 = call ptr (ptr, ptr, i32, i32, i32, ptr, ptr, ...) @proto_tree_add_subtree_format(ptr noundef %73, ptr noundef %74, i32 noundef 0, i32 noundef %75, i32 noundef %76, ptr noundef null, ptr noundef @.str.2122, ptr noundef %79)
  store ptr %80, ptr %12, align 8
  store i32 0, ptr %14, align 4
  br label %81

81:                                               ; preds = %93, %72
  %82 = load i32, ptr %14, align 4
  %83 = load i32, ptr %11, align 4
  %84 = icmp slt i32 %82, %83
  br i1 %84, label %85, label %91

85:                                               ; preds = %81
  %86 = load ptr, ptr %6, align 8
  %87 = load i32, ptr %14, align 4
  %88 = call zeroext i8 @tvb_get_uint8(ptr noundef %86, i32 noundef %87)
  store i8 %88, ptr %15, align 1
  %89 = zext i8 %88 to i32
  %90 = icmp sgt i32 %89, 0
  br label %91

91:                                               ; preds = %85, %81
  %92 = phi i1 [ false, %81 ], [ %90, %85 ]
  br i1 %92, label %93, label %143

93:                                               ; preds = %91
  call void @llvm.lifetime.start.p0(i64 8, ptr %17) #5
  %94 = load ptr, ptr %12, align 8
  %95 = load i32, ptr @hf_r3_checksumresults, align 4
  %96 = load ptr, ptr %6, align 8
  %97 = load i32, ptr %14, align 4
  %98 = load ptr, ptr %6, align 8
  %99 = load i32, ptr %14, align 4
  %100 = call zeroext i8 @tvb_get_uint8(ptr noundef %98, i32 noundef %99)
  %101 = zext i8 %100 to i32
  %102 = call ptr @proto_tree_add_item(ptr noundef %94, i32 noundef %95, ptr noundef %96, i32 noundef %97, i32 noundef %101, i32 noundef 0)
  store ptr %102, ptr %17, align 8
  call void @llvm.lifetime.start.p0(i64 8, ptr %18) #5
  %103 = load ptr, ptr %17, align 8
  %104 = load i32, ptr @ett_r3checksumresultsfield, align 4
  %105 = call ptr @proto_item_add_subtree(ptr noundef %103, i32 noundef %104)
  store ptr %105, ptr %18, align 8
  call void @llvm.lifetime.start.p0(i64 8, ptr %19) #5
  %106 = load ptr, ptr %6, align 8
  %107 = load i32, ptr %14, align 4
  %108 = add i32 %107, 1
  %109 = call zeroext i8 @tvb_get_uint8(ptr noundef %106, i32 noundef %108)
  %110 = zext i8 %109 to i32
  %111 = call ptr @val_to_str_ext_const(i32 noundef %110, ptr noundef @r3_checksumresultnames_ext, ptr noundef @.str.2117)
  store ptr %111, ptr %19, align 8
  %112 = load ptr, ptr %17, align 8
  %113 = load ptr, ptr %19, align 8
  %114 = load ptr, ptr %6, align 8
  %115 = load i32, ptr %14, align 4
  %116 = add i32 %115, 2
  %117 = call zeroext i8 @tvb_get_uint8(ptr noundef %114, i32 noundef %116)
  %118 = zext i8 %117 to i32
  %119 = icmp ne i32 %118, 0
  %120 = select i1 %119, ptr @.str.52, ptr @.str.1736
  call void (ptr, ptr, ...) @proto_item_append_text(ptr noundef %112, ptr noundef @.str.2124, ptr noundef %113, ptr noundef %120)
  %121 = load ptr, ptr %18, align 8
  %122 = load i32, ptr @hf_r3_checksumresults_length, align 4
  %123 = load ptr, ptr %6, align 8
  %124 = load i32, ptr %14, align 4
  %125 = add i32 %124, 0
  %126 = call ptr @proto_tree_add_item(ptr noundef %121, i32 noundef %122, ptr noundef %123, i32 noundef %125, i32 noundef 1, i32 noundef -2147483648)
  %127 = load ptr, ptr %18, align 8
  %128 = load i32, ptr @hf_r3_checksumresults_field, align 4
  %129 = load ptr, ptr %6, align 8
  %130 = load i32, ptr %14, align 4
  %131 = add i32 %130, 1
  %132 = call ptr @proto_tree_add_item(ptr noundef %127, i32 noundef %128, ptr noundef %129, i32 noundef %131, i32 noundef 1, i32 noundef -2147483648)
  %133 = load ptr, ptr %18, align 8
  %134 = load i32, ptr @hf_r3_checksumresults_state, align 4
  %135 = load ptr, ptr %6, align 8
  %136 = load i32, ptr %14, align 4
  %137 = add i32 %136, 2
  %138 = call ptr @proto_tree_add_item(ptr noundef %133, i32 noundef %134, ptr noundef %135, i32 noundef %137, i32 noundef 1, i32 noundef -2147483648)
  %139 = load i8, ptr %15, align 1
  %140 = zext i8 %139 to i32
  %141 = load i32, ptr %14, align 4
  %142 = add i32 %141, %140
  store i32 %142, ptr %14, align 4
  call void @llvm.lifetime.end.p0(i64 8, ptr %19) #5
  call void @llvm.lifetime.end.p0(i64 8, ptr %18) #5
  call void @llvm.lifetime.end.p0(i64 8, ptr %17) #5
  br label %81, !llvm.loop !28

143:                                              ; preds = %91
  store i32 0, ptr %16, align 4
  br label %144

144:                                              ; preds = %143, %46
  call void @llvm.lifetime.end.p0(i64 1, ptr %15) #5
  call void @llvm.lifetime.end.p0(i64 4, ptr %14) #5
  call void @llvm.lifetime.end.p0(i64 4, ptr %13) #5
  call void @llvm.lifetime.end.p0(i64 8, ptr %12) #5
  %145 = load i32, ptr %16, align 4
  switch i32 %145, label %148 [
    i32 0, label %146
  ]

146:                                              ; preds = %144
  br label %147

147:                                              ; preds = %146, %38
  store i32 0, ptr %16, align 4
  br label %148

148:                                              ; preds = %147, %144
  call void @llvm.lifetime.end.p0(i64 4, ptr %11) #5
  %149 = load i32, ptr %16, align 4
  switch i32 %149, label %151 [
    i32 0, label %150
    i32 1, label %150
  ]

150:                                              ; preds = %148, %148
  ret void

151:                                              ; preds = %148
  unreachable
}