; Function Attrs: null_pointer_is_valid sspstrong uwtable
define internal void @dissect_r3_upstreammfgfield_checksumresults(ptr noundef %0, i32 noundef %1, i32 %2, ptr noundef %3, ptr noundef %4) #0 {
  %6 = icmp eq i32 %1, 0
  br i1 %6, label %8, label %7

7:                                                ; preds = %5
  tail call void (ptr, ...) @proto_report_dissector_bug(ptr noundef nonnull @.str.1860, ptr noundef nonnull @.str.1861, i32 noundef 4879, ptr noundef nonnull @.str.1862) #6
  unreachable

8:                                                ; preds = %5
  %9 = tail call i32 @tvb_reported_length_remaining(ptr noundef %0, i32 noundef 0)
  %10 = icmp slt i32 %9, 0
  br i1 %10, label %.thread.thread, label %11

11:                                               ; preds = %8
  %12 = tail call i32 @tvb_reported_length_remaining(ptr noundef %0, i32 noundef 0)
  %13 = srem i32 %12, 3
  %.not = icmp eq i32 %13, 0
  br i1 %.not, label %.thread, label %14

14:                                               ; preds = %11
  %15 = tail call ptr @proto_tree_get_parent(ptr noundef %4)
  %16 = tail call ptr (ptr, ptr, ptr, ptr, ...) @expert_add_info_format(ptr noundef %3, ptr noundef %15, ptr noundef nonnull @ei_r3_malformed_length, ptr noundef nonnull @.str.2121)
  br label %.critedge59

.thread:                                          ; preds = %11
  %.not54.not = icmp eq ptr %4, null
  br i1 %.not54.not, label %.critedge59, label %.preheader

.thread.thread:                                   ; preds = %8
  %.not54.not68 = icmp eq ptr %4, null
  br i1 %.not54.not68, label %.critedge59, label %.critedge.thread

.preheader:                                       ; preds = %.thread
  %17 = icmp sgt i32 %12, 0
  br i1 %17, label %.lr.ph, label %.critedge.thread

.lr.ph:                                           ; preds = %.preheader, %19
  %.062 = phi i32 [ %24, %19 ], [ 0, %.preheader ]
  %.04961 = phi i32 [ %25, %19 ], [ 0, %.preheader ]
  %18 = tail call zeroext i8 @tvb_get_uint8(ptr noundef %0, i32 noundef %.04961)
  %.not55 = icmp eq i8 %18, 0
  br i1 %.not55, label %.critedge, label %19

19:                                               ; preds = %.lr.ph
  %20 = zext i8 %18 to i32
  %21 = add i32 %.04961, 2
  %22 = tail call zeroext i8 @tvb_get_uint8(ptr noundef %0, i32 noundef %21)
  %23 = zext i8 %22 to i32
  %24 = or i32 %.062, %23
  %25 = add i32 %.04961, %20
  %26 = icmp slt i32 %25, %12
  br i1 %26, label %.lr.ph, label %.critedge, !llvm.loop !26

.critedge.thread:                                 ; preds = %.preheader, %.thread.thread
  %.ph69 = phi i32 [ %12, %.preheader ], [ 0, %.thread.thread ]
  %27 = load i32, ptr @ett_r3checksumresults, align 4
  %28 = tail call ptr (ptr, ptr, i32, i32, i32, ptr, ptr, ...) @proto_tree_add_subtree_format(ptr noundef nonnull %4, ptr noundef %0, i32 noundef 0, i32 noundef %.ph69, i32 noundef %27, ptr noundef null, ptr noundef nonnull @.str.2122, ptr noundef nonnull @.str.2123)
  br label %.critedge59

.critedge:                                        ; preds = %.lr.ph, %19
  %.0.lcssa.ph = phi i32 [ %.062, %.lr.ph ], [ %24, %19 ]
  %29 = icmp eq i32 %.0.lcssa.ph, 0
  %30 = select i1 %29, ptr @.str.2123, ptr @.str.52
  %31 = load i32, ptr @ett_r3checksumresults, align 4
  %32 = tail call ptr (ptr, ptr, i32, i32, i32, ptr, ptr, ...) @proto_tree_add_subtree_format(ptr noundef nonnull %4, ptr noundef %0, i32 noundef 0, i32 noundef %12, i32 noundef %31, ptr noundef null, ptr noundef nonnull @.str.2122, ptr noundef nonnull %30)
  br label %.lr.ph66

.lr.ph66:                                         ; preds = %.critedge, %34
  %.165 = phi i32 [ %55, %34 ], [ 0, %.critedge ]
  %33 = tail call zeroext i8 @tvb_get_uint8(ptr noundef %0, i32 noundef %.165)
  %.not57 = icmp eq i8 %33, 0
  br i1 %.not57, label %.critedge59, label %34

34:                                               ; preds = %.lr.ph66
  %35 = zext i8 %33 to i32
  %36 = load i32, ptr @hf_r3_checksumresults, align 4
  %37 = tail call zeroext i8 @tvb_get_uint8(ptr noundef %0, i32 noundef %.165)
  %38 = zext i8 %37 to i32
  %39 = tail call ptr @proto_tree_add_item(ptr noundef %32, i32 noundef %36, ptr noundef %0, i32 noundef %.165, i32 noundef %38, i32 noundef 0)
  %40 = load i32, ptr @ett_r3checksumresultsfield, align 4
  %41 = tail call ptr @proto_item_add_subtree(ptr noundef %39, i32 noundef %40)
  %42 = add nsw i32 %.165, 1
  %43 = tail call zeroext i8 @tvb_get_uint8(ptr noundef %0, i32 noundef %42)
  %44 = zext i8 %43 to i32
  %45 = tail call ptr @val_to_str_ext_const(i32 noundef %44, ptr noundef nonnull @r3_checksumresultnames_ext, ptr noundef nonnull @.str.2117)
  %46 = add i32 %.165, 2
  %47 = tail call zeroext i8 @tvb_get_uint8(ptr noundef %0, i32 noundef %46)
  %.not58 = icmp eq i8 %47, 0
  %48 = select i1 %.not58, ptr @.str.1736, ptr @.str.52
  tail call void (ptr, ptr, ...) @proto_item_append_text(ptr noundef %39, ptr noundef nonnull @.str.2124, ptr noundef %45, ptr noundef nonnull %48)
  %49 = load i32, ptr @hf_r3_checksumresults_length, align 4
  %50 = tail call ptr @proto_tree_add_item(ptr noundef %41, i32 noundef %49, ptr noundef %0, i32 noundef %.165, i32 noundef 1, i32 noundef -2147483648)
  %51 = load i32, ptr @hf_r3_checksumresults_field, align 4
  %52 = tail call ptr @proto_tree_add_item(ptr noundef %41, i32 noundef %51, ptr noundef %0, i32 noundef %42, i32 noundef 1, i32 noundef -2147483648)
  %53 = load i32, ptr @hf_r3_checksumresults_state, align 4
  %54 = tail call ptr @proto_tree_add_item(ptr noundef %41, i32 noundef %53, ptr noundef %0, i32 noundef %46, i32 noundef 1, i32 noundef -2147483648)
  %55 = add i32 %.165, %35
  %56 = icmp slt i32 %55, %12
  br i1 %56, label %.lr.ph66, label %.critedge59, !llvm.loop !27

.critedge59:                                      ; preds = %.lr.ph66, %34, %.critedge.thread, %.thread.thread, %.thread, %14
  ret void
}